	.file	"/home/ncl/eyoh/test/Emulation-CPU/_xocc_link_binary_container_1/impl/build/cpu_em/binary_container_1/csim/local_maxmin/local_maxmin.clc.csim_cu-opt.bc"
	.file	1 "/home/ncl/eyoh/test/Emulation-CPU/_xocc_link_binary_container_1/impl/kernels/local_maxmin/local_maxmin/cpu_sources/image.cl"
	.text
.Ltext_begin:
	.data
	.section	.rodata.cst4,"aM",@progbits,4
	.align	4
.LCPI0_0:
	.long	1061997773              # float 8.000000e-01
                                        #  (0x3f4ccccd)
.LCPI0_1:
	.long	1048576000              # float 2.500000e-01
                                        #  (0x3e800000)
.LCPI0_2:
	.long	0                       # float 0.000000e+00
                                        #  (0x0)
	.text
	.globl	local_maxmin
	.align	16, 0x90
	.type	local_maxmin,@function
local_maxmin:                           # @local_maxmin
	.cfi_startproc
.Lfunc_begin0:
	.loc	1 132 0                 # /home/ncl/eyoh/test/Emulation-CPU/_xocc_link_binary_container_1/impl/kernels/local_maxmin/local_maxmin/cpu_sources/image.cl:132:0
# BB#0:                                 # %preheader143
	pushq	%rbp
.Ltmp7:
	.cfi_def_cfa_offset 16
	pushq	%r15
.Ltmp8:
	.cfi_def_cfa_offset 24
	pushq	%r14
.Ltmp9:
	.cfi_def_cfa_offset 32
	pushq	%r13
.Ltmp10:
	.cfi_def_cfa_offset 40
	pushq	%r12
.Ltmp11:
	.cfi_def_cfa_offset 48
	pushq	%rbx
.Ltmp12:
	.cfi_def_cfa_offset 56
	subq	$136, %rsp
.Ltmp13:
	.cfi_def_cfa_offset 192
.Ltmp14:
	.cfi_offset %rbx, -56
.Ltmp15:
	.cfi_offset %r12, -48
.Ltmp16:
	.cfi_offset %r13, -40
.Ltmp17:
	.cfi_offset %r14, -32
.Ltmp18:
	.cfi_offset %r15, -24
.Ltmp19:
	.cfi_offset %rbp, -16
.Ltmp20:
	#DEBUG_VALUE: local_maxmin:__xlnx_rt_info <- RDI+0
	#DEBUG_VALUE: local_maxmin:border_dist <- ECX+0
	#DEBUG_VALUE: local_maxmin:counter <- R9+0
	movq	%r9, 40(%rsp)           # 8-byte Spill
.Ltmp21:
	#DEBUG_VALUE: local_maxmin:counter <- [%rsp+$40]+$0
	movss	%xmm1, 52(%rsp)         # 4-byte Spill
	movss	%xmm0, 56(%rsp)         # 4-byte Spill
	movq	%rdx, 32(%rsp)          # 8-byte Spill
	movq	%rsi, %rbx
	movl	36(%rdi), %eax
	movl	%eax, (%rsp)            # 4-byte Spill
	testl	%eax, %eax
	je	.LBB0_30
.Ltmp22:
# BB#1:                                 # %for.header138.preheader.lr.ph
	#DEBUG_VALUE: local_maxmin:border_dist <- ECX+0
	movq	%rdi, 104(%rsp)         # 8-byte Spill
	movl	28(%rdi), %eax
	movl	%eax, 60(%rsp)          # 4-byte Spill
	movl	32(%rdi), %eax
	movl	%eax, 20(%rsp)          # 4-byte Spill
	movl	216(%rsp), %edx
	movl	%edx, 48(%rsp)          # 4-byte Spill
	movl	208(%rsp), %r13d
	#DEBUG_VALUE: local_maxmin:width <- R13D+0
	movl	200(%rsp), %eax
	leal	-1(%rax), %esi
	leal	1(%rax), %edi
	imull	%edx, %edi
	movl	%edi, 8(%rsp)           # 4-byte Spill
	imull	%edx, %esi
	movl	%esi, 12(%rsp)          # 4-byte Spill
	movl	%edx, %esi
	imull	%eax, %esi
	movl	%esi, 4(%rsp)           # 4-byte Spill
	.loc	1 141 48 prologue_end   # /home/ncl/eyoh/test/Emulation-CPU/_xocc_link_binary_container_1/impl/kernels/local_maxmin/local_maxmin/cpu_sources/image.cl:141:48
.Ltmp23:
	imull	%r13d, %edx
	movl	%edx, 120(%rsp)         # 4-byte Spill
	.loc	1 193 62                # /home/ncl/eyoh/test/Emulation-CPU/_xocc_link_binary_container_1/impl/kernels/local_maxmin/local_maxmin/cpu_sources/image.cl:193:62
.Ltmp24:
	cmpl	$2, %r8d
	jl	.LBB0_3
# BB#2:                                 # %for.header138.preheader.lr.ph
	#DEBUG_VALUE: local_maxmin:border_dist <- ECX+0
	#DEBUG_VALUE: local_maxmin:width <- R13D+0
	movss	%xmm2, 52(%rsp)         # 4-byte Spill
.Ltmp25:
.LBB0_3:                                # %for.header138.preheader.lr.ph
	#DEBUG_VALUE: local_maxmin:border_dist <- ECX+0
	#DEBUG_VALUE: local_maxmin:width <- R13D+0
	#DEBUG_VALUE: local_maxmin:nb_keypoints <- undef
	.loc	1 140 2                 # /home/ncl/eyoh/test/Emulation-CPU/_xocc_link_binary_container_1/impl/kernels/local_maxmin/local_maxmin/cpu_sources/image.cl:140:2
	movl	%r13d, %edx
	movl	%ecx, 116(%rsp)         # 4-byte Spill
	subl	%ecx, %edx
	movl	%edx, 28(%rsp)          # 4-byte Spill
	subl	%ecx, 48(%rsp)          # 4-byte Folded Spill
	#DEBUG_VALUE: local_maxmin:EdgeThresh0 <- [%rsp+$52]+$0
.Ltmp26:
	#DEBUG_VALUE: edthresh <- [%rsp+$52]+$0
	.loc	1 142 38                # /home/ncl/eyoh/test/Emulation-CPU/_xocc_link_binary_container_1/impl/kernels/local_maxmin/local_maxmin/cpu_sources/image.cl:142:38
	movl	120(%rsp), %ecx         # 4-byte Reload
.Ltmp27:
	#DEBUG_VALUE: local_maxmin:border_dist <- [%rsp+$116]+$0
	imull	%eax, %ecx
.Ltmp28:
	#DEBUG_VALUE: index_dog <- [%rsp+$120]+$0
	movl	%ecx, 120(%rsp)         # 4-byte Spill
	decl	4(%rsp)                 # 4-byte Folded Spill
	.loc	1 152 7                 # /home/ncl/eyoh/test/Emulation-CPU/_xocc_link_binary_container_1/impl/kernels/local_maxmin/local_maxmin/cpu_sources/image.cl:152:7
	movss	56(%rsp), %xmm0         # 4-byte Reload
	mulss	.LCPI0_0(%rip), %xmm0
	.loc	1 208 5                 # /home/ncl/eyoh/test/Emulation-CPU/_xocc_link_binary_container_1/impl/kernels/local_maxmin/local_maxmin/cpu_sources/image.cl:208:5
.Ltmp29:
	movss	%xmm0, 56(%rsp)         # 4-byte Spill
	xorps	%xmm0, %xmm0
	cvtsi2ss	%eax, %xmm0
	decl	12(%rsp)                # 4-byte Folded Spill
	decl	8(%rsp)                 # 4-byte Folded Spill
	movd	%xmm0, 24(%rsp)         # 4-byte Folded Spill
	xorl	%eax, %eax
.Ltmp30:
	.align	16, 0x90
.LBB0_4:                                # %for.header138.preheader
                                        # =>This Loop Header: Depth=1
                                        #     Child Loop BB0_5 Depth 2
                                        #       Child Loop BB0_7 Depth 3
                                        #         Child Loop BB0_13 Depth 4
                                        #           Child Loop BB0_14 Depth 5
	#DEBUG_VALUE: local_maxmin:border_dist <- [%rsp+$116]+$0
	#DEBUG_VALUE: local_maxmin:width <- R13D+0
	#DEBUG_VALUE: edthresh <- [%rsp+$52]+$0
	#DEBUG_VALUE: local_maxmin:EdgeThresh0 <- [%rsp+$52]+$0
	#DEBUG_VALUE: index_dog <- [%rsp+$120]+$0
	movl	%eax, 16(%rsp)          # 4-byte Spill
	cmpl	$0, 20(%rsp)            # 4-byte Folded Reload
	.loc	1 159 10                # /home/ncl/eyoh/test/Emulation-CPU/_xocc_link_binary_container_1/impl/kernels/local_maxmin/local_maxmin/cpu_sources/image.cl:159:10
.Ltmp31:
	movl	12(%rsp), %eax          # 4-byte Reload
	movl	%eax, 72(%rsp)          # 4-byte Spill
	movl	4(%rsp), %eax           # 4-byte Reload
	movl	%eax, 68(%rsp)          # 4-byte Spill
	movl	8(%rsp), %eax           # 4-byte Reload
	movl	%eax, 64(%rsp)          # 4-byte Spill
	movl	$0, %eax
	movl	%eax, 76(%rsp)          # 4-byte Spill
	je	.LBB0_29
.Ltmp32:
	.align	16, 0x90
.LBB0_5:                                # %for.header.preheader
                                        #   Parent Loop BB0_4 Depth=1
                                        # =>  This Loop Header: Depth=2
                                        #       Child Loop BB0_7 Depth 3
                                        #         Child Loop BB0_13 Depth 4
                                        #           Child Loop BB0_14 Depth 5
	#DEBUG_VALUE: local_maxmin:border_dist <- [%rsp+$116]+$0
	#DEBUG_VALUE: local_maxmin:width <- R13D+0
	#DEBUG_VALUE: edthresh <- [%rsp+$52]+$0
	#DEBUG_VALUE: local_maxmin:EdgeThresh0 <- [%rsp+$52]+$0
	#DEBUG_VALUE: index_dog <- [%rsp+$120]+$0
	cmpl	$0, 60(%rsp)            # 4-byte Folded Reload
	je	.LBB0_28
.Ltmp33:
# BB#6:                                 #   in Loop: Header=BB0_5 Depth=2
	movl	$-1, %r11d
	xorl	%edi, %edi
	.align	16, 0x90
.LBB0_7:                                # %.split
                                        #   Parent Loop BB0_4 Depth=1
                                        #     Parent Loop BB0_5 Depth=2
                                        # =>    This Loop Header: Depth=3
                                        #         Child Loop BB0_13 Depth 4
                                        #           Child Loop BB0_14 Depth 5
	movq	104(%rsp), %rax         # 8-byte Reload
	movl	20(%rax), %r12d
	.loc	1 134 19                # /home/ncl/eyoh/test/Emulation-CPU/_xocc_link_binary_container_1/impl/kernels/local_maxmin/local_maxmin/cpu_sources/image.cl:134:19
	movl	76(%rsp), %eax          # 4-byte Reload
	leal	(%r12,%rax), %ecx
.Ltmp34:
	#DEBUG_VALUE: gid1 <- ECX+0
	cmpl	48(%rsp), %ecx          # 4-byte Folded Reload
	jge	.LBB0_34
# BB#8:                                 #   in Loop: Header=BB0_7 Depth=3
.Ltmp35:
	#DEBUG_VALUE: gid1 <- ECX+0
	movq	104(%rsp), %rax         # 8-byte Reload
	movl	16(%rax), %ebp
	.loc	1 135 19                # /home/ncl/eyoh/test/Emulation-CPU/_xocc_link_binary_container_1/impl/kernels/local_maxmin/local_maxmin/cpu_sources/image.cl:135:19
	leal	(%rbp,%rdi), %edx
.Ltmp36:
	#DEBUG_VALUE: gid0 <- EDX+0
	.loc	1 140 2                 # /home/ncl/eyoh/test/Emulation-CPU/_xocc_link_binary_container_1/impl/kernels/local_maxmin/local_maxmin/cpu_sources/image.cl:140:2
	cmpl	28(%rsp), %edx          # 4-byte Folded Reload
	jge	.LBB0_34
.Ltmp37:
# BB#9:                                 #   in Loop: Header=BB0_7 Depth=3
	cmpl	116(%rsp), %ecx         # 4-byte Folded Reload
	jl	.LBB0_34
# BB#10:                                #   in Loop: Header=BB0_7 Depth=3
	cmpl	116(%rsp), %edx         # 4-byte Folded Reload
	jl	.LBB0_34
# BB#11:                                #   in Loop: Header=BB0_7 Depth=3
	.loc	1 146 50                # /home/ncl/eyoh/test/Emulation-CPU/_xocc_link_binary_container_1/impl/kernels/local_maxmin/local_maxmin/cpu_sources/image.cl:146:50
.Ltmp38:
	movl	%ecx, %esi
	imull	%r13d, %esi
	movl	%esi, 88(%rsp)          # 4-byte Spill
	movl	120(%rsp), %eax         # 4-byte Reload
	leal	(%rsi,%rax), %eax
	addl	%edx, %eax
	movslq	%eax, %rax
	movl	(%rbx,%rax,4), %eax
	movl	%eax, 92(%rsp)          # 4-byte Spill
	movd	%eax, %xmm0
.Ltmp39:
	#DEBUG_VALUE: val <- XMM0+0
	#DEBUG_VALUE: res <- XMM0+0
	movss	%xmm0, 80(%rsp)         # 4-byte Spill
.Ltmp40:
	#DEBUG_VALUE: val <- [%rsp+$80]+$0
	#DEBUG_VALUE: res <- [%rsp+$80]+$0
	movl	%ecx, 124(%rsp)         # 4-byte Spill
	movl	%edx, %r15d
	movl	%r11d, 128(%rsp)        # 4-byte Spill
	movl	%edi, %r14d
	callq	hls_fabs@PLT
	movl	%r14d, %edi
	movss	80(%rsp), %xmm1         # 4-byte Reload
.Ltmp41:
	#DEBUG_VALUE: val <- XMM1+0
	#DEBUG_VALUE: res <- XMM1+0
	movl	128(%rsp), %r11d        # 4-byte Reload
	movl	%r15d, %esi
	movl	124(%rsp), %edx         # 4-byte Reload
	ucomiss	56(%rsp), %xmm0         # 4-byte Folded Reload
	jbe	.LBB0_34
# BB#12:                                #   in Loop: Header=BB0_7 Depth=3
	#DEBUG_VALUE: res <- XMM1+0
	#DEBUG_VALUE: val <- XMM1+0
	movl	%edi, 100(%rsp)         # 4-byte Spill
	.loc	1 158 9                 # /home/ncl/eyoh/test/Emulation-CPU/_xocc_link_binary_container_1/impl/kernels/local_maxmin/local_maxmin/cpu_sources/image.cl:158:9
.Ltmp42:
	movl	68(%rsp), %eax          # 4-byte Reload
	leal	(%rax,%r12), %r15d
	movl	64(%rsp), %eax          # 4-byte Reload
	leal	(%rax,%r12), %ecx
.Ltmp43:
	.loc	1 156 4                 # /home/ncl/eyoh/test/Emulation-CPU/_xocc_link_binary_container_1/impl/kernels/local_maxmin/local_maxmin/cpu_sources/image.cl:156:4
	ucomiss	.LCPI0_2(%rip), %xmm1
	seta	%al
	movzbl	%al, %eax
	.loc	1 158 9                 # /home/ncl/eyoh/test/Emulation-CPU/_xocc_link_binary_container_1/impl/kernels/local_maxmin/local_maxmin/cpu_sources/image.cl:158:9
.Ltmp44:
	imull	%r13d, %ecx
	imull	%r13d, %r15d
	addl	%r11d, %ebp
	addl	72(%rsp), %r12d         # 4-byte Folded Reload
	imull	%r13d, %r12d
	addl	%ebp, %r12d
	addl	%ebp, %r15d
	addl	%ecx, %ebp
	.loc	1 159 10                # /home/ncl/eyoh/test/Emulation-CPU/_xocc_link_binary_container_1/impl/kernels/local_maxmin/local_maxmin/cpu_sources/image.cl:159:10
.Ltmp45:
	leal	1(%rsi), %r11d
	leal	-1(%rsi), %ecx
.Ltmp46:
	#DEBUG_VALUE: c <- [%rsp+$132]+$0
	movl	%ecx, 132(%rsp)         # 4-byte Spill
	movl	%esi, 96(%rsp)          # 4-byte Spill
.Ltmp47:
	.loc	1 156 4                 # /home/ncl/eyoh/test/Emulation-CPU/_xocc_link_binary_container_1/impl/kernels/local_maxmin/local_maxmin/cpu_sources/image.cl:156:4
	movl	%eax, %esi
	xorl	$1, %esi
	.loc	1 158 9                 # /home/ncl/eyoh/test/Emulation-CPU/_xocc_link_binary_container_1/impl/kernels/local_maxmin/local_maxmin/cpu_sources/image.cl:158:9
.Ltmp48:
	leal	1(%rdx), %r10d
	leal	-1(%rdx), %ecx
.Ltmp49:
	#DEBUG_VALUE: r <- ECX+0
	movl	%ecx, 84(%rsp)          # 4-byte Spill
.Ltmp50:
	#DEBUG_VALUE: r <- [%rsp+$84]+$0
	.align	16, 0x90
.LBB0_13:                               #   Parent Loop BB0_4 Depth=1
                                        #     Parent Loop BB0_5 Depth=2
                                        #       Parent Loop BB0_7 Depth=3
                                        # =>      This Loop Header: Depth=4
                                        #           Child Loop BB0_14 Depth 5
	#DEBUG_VALUE: res <- XMM1+0
	#DEBUG_VALUE: val <- XMM1+0
	#DEBUG_VALUE: r <- [%rsp+$84]+$0
	movl	%r12d, %edi
	movl	%r15d, %edx
	movl	%ebp, %r14d
	movl	132(%rsp), %r9d         # 4-byte Reload
	.align	16, 0x90
.LBB0_14:                               #   Parent Loop BB0_4 Depth=1
                                        #     Parent Loop BB0_5 Depth=2
                                        #       Parent Loop BB0_7 Depth=3
                                        #         Parent Loop BB0_13 Depth=4
                                        # =>        This Inner Loop Header: Depth=5
	#DEBUG_VALUE: res <- XMM1+0
	#DEBUG_VALUE: val <- XMM1+0
	#DEBUG_VALUE: r <- [%rsp+$84]+$0
	.loc	1 162 6                 # /home/ncl/eyoh/test/Emulation-CPU/_xocc_link_binary_container_1/impl/kernels/local_maxmin/local_maxmin/cpu_sources/image.cl:162:6
.Ltmp51:
	cmpl	$1, %eax
	jne	.LBB0_19
# BB#15:                                #   in Loop: Header=BB0_14 Depth=5
	#DEBUG_VALUE: res <- XMM1+0
	#DEBUG_VALUE: val <- XMM1+0
	#DEBUG_VALUE: r <- [%rsp+$84]+$0
	.loc	1 163 7                 # /home/ncl/eyoh/test/Emulation-CPU/_xocc_link_binary_container_1/impl/kernels/local_maxmin/local_maxmin/cpu_sources/image.cl:163:7
	movslq	%edi, %rax
	movss	(%rbx,%rax,4), %xmm0
	ucomiss	%xmm1, %xmm0
	ja	.LBB0_18
# BB#16:                                #   in Loop: Header=BB0_14 Depth=5
	#DEBUG_VALUE: res <- XMM1+0
	#DEBUG_VALUE: val <- XMM1+0
	#DEBUG_VALUE: r <- [%rsp+$84]+$0
	movslq	%edx, %rax
	movss	(%rbx,%rax,4), %xmm0
	ucomiss	%xmm1, %xmm0
	ja	.LBB0_18
# BB#17:                                #   in Loop: Header=BB0_14 Depth=5
	#DEBUG_VALUE: res <- XMM1+0
	#DEBUG_VALUE: val <- XMM1+0
	#DEBUG_VALUE: r <- [%rsp+$84]+$0
	movslq	%r14d, %rax
	movss	(%rbx,%rax,4), %xmm0
	movl	$1, %eax
	ucomiss	%xmm1, %xmm0
	jbe	.LBB0_19
.Ltmp52:
.LBB0_18:                               # %._crit_edge13
                                        #   in Loop: Header=BB0_14 Depth=5
	xorl	%eax, %eax
.LBB0_19:                               # %._crit_edge12
                                        #   in Loop: Header=BB0_14 Depth=5
.Ltmp53:
	#DEBUG_VALUE: res <- XMM1+0
	#DEBUG_VALUE: val <- XMM1+0
	#DEBUG_VALUE: r <- [%rsp+$84]+$0
	.loc	1 164 6                 # /home/ncl/eyoh/test/Emulation-CPU/_xocc_link_binary_container_1/impl/kernels/local_maxmin/local_maxmin/cpu_sources/image.cl:164:6
	cmpl	$1, %esi
	jne	.LBB0_24
# BB#20:                                #   in Loop: Header=BB0_14 Depth=5
	#DEBUG_VALUE: res <- XMM1+0
	#DEBUG_VALUE: val <- XMM1+0
	#DEBUG_VALUE: r <- [%rsp+$84]+$0
	.loc	1 165 7                 # /home/ncl/eyoh/test/Emulation-CPU/_xocc_link_binary_container_1/impl/kernels/local_maxmin/local_maxmin/cpu_sources/image.cl:165:7
	movslq	%edi, %rsi
	ucomiss	(%rbx,%rsi,4), %xmm1
	ja	.LBB0_23
# BB#21:                                #   in Loop: Header=BB0_14 Depth=5
	#DEBUG_VALUE: res <- XMM1+0
	#DEBUG_VALUE: val <- XMM1+0
	#DEBUG_VALUE: r <- [%rsp+$84]+$0
	movslq	%edx, %rsi
	ucomiss	(%rbx,%rsi,4), %xmm1
	ja	.LBB0_23
# BB#22:                                #   in Loop: Header=BB0_14 Depth=5
	#DEBUG_VALUE: res <- XMM1+0
	#DEBUG_VALUE: val <- XMM1+0
	#DEBUG_VALUE: r <- [%rsp+$84]+$0
	movslq	%r14d, %r8
	movl	$1, %esi
	ucomiss	(%rbx,%r8,4), %xmm1
	jbe	.LBB0_24
.Ltmp54:
.LBB0_23:                               # %._crit_edge18
                                        #   in Loop: Header=BB0_14 Depth=5
	xorl	%esi, %esi
.LBB0_24:                               # %._crit_edge17
                                        #   in Loop: Header=BB0_14 Depth=5
.Ltmp55:
	#DEBUG_VALUE: res <- XMM1+0
	#DEBUG_VALUE: val <- XMM1+0
	#DEBUG_VALUE: r <- [%rsp+$84]+$0
	.loc	1 159 10                # /home/ncl/eyoh/test/Emulation-CPU/_xocc_link_binary_container_1/impl/kernels/local_maxmin/local_maxmin/cpu_sources/image.cl:159:10
	incl	%edi
	incl	%edx
	incl	%r14d
	.loc	1 159 39                # /home/ncl/eyoh/test/Emulation-CPU/_xocc_link_binary_container_1/impl/kernels/local_maxmin/local_maxmin/cpu_sources/image.cl:159:39
	incl	%r9d
.Ltmp56:
	#DEBUG_VALUE: c <- R9D+0
	cmpl	%r11d, %r9d
	jle	.LBB0_14
.Ltmp57:
# BB#25:                                #   in Loop: Header=BB0_13 Depth=4
	#DEBUG_VALUE: res <- XMM1+0
	#DEBUG_VALUE: val <- XMM1+0
	#DEBUG_VALUE: r <- [%rsp+$84]+$0
	.loc	1 158 9                 # /home/ncl/eyoh/test/Emulation-CPU/_xocc_link_binary_container_1/impl/kernels/local_maxmin/local_maxmin/cpu_sources/image.cl:158:9
	addl	%r13d, %r12d
	addl	%r13d, %r15d
	addl	%r13d, %ebp
	.loc	1 158 39                # /home/ncl/eyoh/test/Emulation-CPU/_xocc_link_binary_container_1/impl/kernels/local_maxmin/local_maxmin/cpu_sources/image.cl:158:39
	incl	%ecx
.Ltmp58:
	#DEBUG_VALUE: r <- ECX+0
	cmpl	%r10d, %ecx
	jle	.LBB0_13
.Ltmp59:
# BB#26:                                # %._crit_edge24
                                        #   in Loop: Header=BB0_7 Depth=3
	#DEBUG_VALUE: res <- XMM1+0
	#DEBUG_VALUE: val <- XMM1+0
	.loc	1 169 4                 # /home/ncl/eyoh/test/Emulation-CPU/_xocc_link_binary_container_1/impl/kernels/local_maxmin/local_maxmin/cpu_sources/image.cl:169:4
	cmpl	$1, %esi
	sete	%cl
	cmpl	$1, %eax
	sete	%al
	orb	%cl, %al
	movl	128(%rsp), %r11d        # 4-byte Reload
	movl	100(%rsp), %edi         # 4-byte Reload
	movl	124(%rsp), %r8d         # 4-byte Reload
	movl	96(%rsp), %r9d          # 4-byte Reload
	je	.LBB0_34
.Ltmp60:
# BB#27:                                # %._crit_edge24
                                        #   in Loop: Header=BB0_7 Depth=3
	ucomiss	.LCPI0_2(%rip), %xmm1
	jne	.LBB0_31
	jnp	.LBB0_34
	jmp	.LBB0_31
.LBB0_31:                               # %._crit_edge24
                                        #   in Loop: Header=BB0_7 Depth=3
	.loc	1 184 94                # /home/ncl/eyoh/test/Emulation-CPU/_xocc_link_binary_container_1/impl/kernels/local_maxmin/local_maxmin/cpu_sources/image.cl:184:94
	movl	120(%rsp), %eax         # 4-byte Reload
	leal	(%r9,%rax), %eax
.Ltmp61:
	#DEBUG_VALUE: pos <- EAX+0
	imull	%r13d, %r10d
	leal	-1(%r10,%rax), %edx
	leal	1(%r10,%rax), %ecx
	movslq	%ecx, %rsi
	movl	84(%rsp), %ebp          # 4-byte Reload
	imull	%r13d, %ebp
	leal	(%rax,%rbp), %ecx
	movss	(%rbx,%rsi,4), %xmm0
	movslq	%edx, %rdx
	leal	1(%rbp,%rax), %esi
	movslq	%esi, %rsi
	movss	(%rbx,%rsi,4), %xmm3
	leal	-1(%rbp,%rax), %esi
	movslq	%esi, %rsi
	subss	(%rbx,%rsi,4), %xmm3
	subss	(%rbx,%rdx,4), %xmm0
	movslq	%ecx, %rcx
	addl	%eax, %r10d
	movss	(%rbx,%rcx,4), %xmm1
	movl	88(%rsp), %edx          # 4-byte Reload
	leal	(%rax,%rdx), %ecx
	movslq	%ecx, %rcx
	movss	(%rbx,%rcx,4), %xmm2
	addss	%xmm2, %xmm2
	subss	%xmm3, %xmm0
	subss	%xmm2, %xmm1
	movslq	%r10d, %rcx
	mulss	.LCPI0_1(%rip), %xmm0
.Ltmp62:
	#DEBUG_VALUE: H01 <- XMM0+0
	.loc	1 186 56                # /home/ncl/eyoh/test/Emulation-CPU/_xocc_link_binary_container_1/impl/kernels/local_maxmin/local_maxmin/cpu_sources/image.cl:186:56
	mulss	%xmm0, %xmm0
.Ltmp63:
	.loc	1 184 94                # /home/ncl/eyoh/test/Emulation-CPU/_xocc_link_binary_container_1/impl/kernels/local_maxmin/local_maxmin/cpu_sources/image.cl:184:94
	addss	(%rbx,%rcx,4), %xmm1
.Ltmp64:
	#DEBUG_VALUE: H00 <- XMM1+0
	leal	-1(%rdx,%rax), %ecx
	movslq	%ecx, %rcx
	movss	(%rbx,%rcx,4), %xmm3
	subss	%xmm2, %xmm3
	leal	1(%rdx,%rax), %eax
.Ltmp65:
	movslq	%eax, %rax
	addss	(%rbx,%rax,4), %xmm3
.Ltmp66:
	#DEBUG_VALUE: H11 <- XMM3+0
	.loc	1 186 56                # /home/ncl/eyoh/test/Emulation-CPU/_xocc_link_binary_container_1/impl/kernels/local_maxmin/local_maxmin/cpu_sources/image.cl:186:56
	movaps	%xmm1, %xmm2
	mulss	%xmm3, %xmm2
	subss	%xmm0, %xmm2
.Ltmp67:
	#DEBUG_VALUE: det <- XMM2+0
	addss	%xmm1, %xmm3
.Ltmp68:
	#DEBUG_VALUE: trace <- XMM3+0
	.loc	1 195 4                 # /home/ncl/eyoh/test/Emulation-CPU/_xocc_link_binary_container_1/impl/kernels/local_maxmin/local_maxmin/cpu_sources/image.cl:195:4
	movss	52(%rsp), %xmm0         # 4-byte Reload
	mulss	%xmm3, %xmm0
	mulss	%xmm3, %xmm0
	ucomiss	%xmm2, %xmm0
	ja	.LBB0_34
.Ltmp69:
# BB#32:                                #   in Loop: Header=BB0_7 Depth=3
	movq	40(%rsp), %rdx          # 8-byte Reload
	.loc	1 203 27                # /home/ncl/eyoh/test/Emulation-CPU/_xocc_link_binary_container_1/impl/kernels/local_maxmin/local_maxmin/cpu_sources/image.cl:203:27
.Ltmp70:
	movl	(%rdx), %eax
.Ltmp71:
	#DEBUG_VALUE: old <- EAX+0
	leal	1(%rax), %ecx
	movl	%ecx, (%rdx)
	cmpl	192(%rsp), %eax
	jge	.LBB0_34
# BB#33:                                #   in Loop: Header=BB0_7 Depth=3
.Ltmp72:
	#DEBUG_VALUE: old <- EAX+0
	shll	$2, %eax
.Ltmp73:
	movq	%rax, %rcx
	andq	$1073741820, %rcx       # imm = 0x3FFFFFFC
	movq	32(%rsp), %rdx          # 8-byte Reload
	movl	92(%rsp), %esi          # 4-byte Reload
	movl	%esi, (%rdx,%rcx,4)
	.loc	1 206 5                 # /home/ncl/eyoh/test/Emulation-CPU/_xocc_link_binary_container_1/impl/kernels/local_maxmin/local_maxmin/cpu_sources/image.cl:206:5
	xorps	%xmm0, %xmm0
	cvtsi2ss	%r8d, %xmm0
	andl	$1073741820, %eax       # imm = 0x3FFFFFFC
	leal	1(%rax), %ecx
	movss	%xmm0, (%rdx,%rcx,4)
	.loc	1 207 5                 # /home/ncl/eyoh/test/Emulation-CPU/_xocc_link_binary_container_1/impl/kernels/local_maxmin/local_maxmin/cpu_sources/image.cl:207:5
	xorps	%xmm0, %xmm0
	cvtsi2ss	%r9d, %xmm0
	leal	2(%rax), %ecx
	movss	%xmm0, (%rdx,%rcx,4)
	orl	$3, %eax
	movl	24(%rsp), %ecx          # 4-byte Reload
	movl	%ecx, (%rdx,%rax,4)
.Ltmp74:
.LBB0_34:                               # %for.body
                                        #   in Loop: Header=BB0_7 Depth=3
	incl	%r11d
	incl	%edi
	cmpl	60(%rsp), %edi          # 4-byte Folded Reload
	jne	.LBB0_7
.LBB0_28:                               # %for.body139
                                        #   in Loop: Header=BB0_5 Depth=2
.Ltmp75:
	#DEBUG_VALUE: local_maxmin:border_dist <- [%rsp+$116]+$0
	#DEBUG_VALUE: local_maxmin:width <- R13D+0
	#DEBUG_VALUE: edthresh <- [%rsp+$52]+$0
	#DEBUG_VALUE: local_maxmin:EdgeThresh0 <- [%rsp+$52]+$0
	#DEBUG_VALUE: index_dog <- [%rsp+$120]+$0
	incl	72(%rsp)                # 4-byte Folded Spill
	incl	68(%rsp)                # 4-byte Folded Spill
	incl	64(%rsp)                # 4-byte Folded Spill
	movl	76(%rsp), %eax          # 4-byte Reload
	incl	%eax
	movl	%eax, 76(%rsp)          # 4-byte Spill
	cmpl	20(%rsp), %eax          # 4-byte Folded Reload
	jne	.LBB0_5
.Ltmp76:
.LBB0_29:                               # %for.body145
                                        #   in Loop: Header=BB0_4 Depth=1
	movl	16(%rsp), %eax          # 4-byte Reload
	incl	%eax
	cmpl	(%rsp), %eax            # 4-byte Folded Reload
	jne	.LBB0_4
.LBB0_30:                               # %rexit_edge
	.loc	1 214 1                 # /home/ncl/eyoh/test/Emulation-CPU/_xocc_link_binary_container_1/impl/kernels/local_maxmin/local_maxmin/cpu_sources/image.cl:214:1
	addq	$136, %rsp
	popq	%rbx
	popq	%r12
	popq	%r13
	popq	%r14
	popq	%r15
	popq	%rbp
	ret
.Ltmp77:
.Ltmp78:
	.size	local_maxmin, .Ltmp78-local_maxmin
.Lfunc_end0:
	.cfi_endproc

	.type	__spir_rt_info,@object  # @__spir_rt_info
	.bss
	.globl	__spir_rt_info
	.align	8
__spir_rt_info:
	.quad	0
	.size	__spir_rt_info, 8

	.cfi_sections .debug_frame
	.text
.Ltext_end:
	.data
.Ldata_end:
	.text
.Lsection_end1:
	.section	".note.GNU-stack","",@progbits
