	.file	"/home/ncl/eyoh/test/Emulation-CPU/_xocc_link_binary_container_1/impl/build/cpu_em/binary_container_1/csim/interp_keypoint/interp_keypoint.clc.csim_cu-opt.bc"
	.file	1 "/home/ncl/eyoh/test/Emulation-CPU/_xocc_link_binary_container_1/impl/kernels/interp_keypoint/interp_keypoint/cpu_sources/image.cl"
	.text
.Ltext_begin:
	.data
	.section	.rodata.cst4,"aM",@progbits,4
	.align	4
.LCPI0_0:
	.long	3212836864              # float -1.000000e+00
                                        #  (0xbf800000)
.LCPI0_1:
	.long	1069547520              # float 1.500000e+00
                                        #  (0x3fc00000)
.LCPI0_2:
	.long	1077936128              # float 3.000000e+00
                                        #  (0x40400000)
.LCPI0_3:
	.long	1073741824              # float 2.000000e+00
                                        #  (0x40000000)
.LCPI0_4:
	.long	1048576000              # float 2.500000e-01
                                        #  (0x3e800000)
.LCPI0_5:
	.long	1056964608              # float 5.000000e-01
                                        #  (0x3f000000)
.LCPI0_7:
	.long	1058642330              # float 6.000000e-01
                                        #  (0x3f19999a)
.LCPI0_8:
	.long	3206125978              # float -6.000000e-01
                                        #  (0xbf19999a)
	.section	.rodata.cst16,"aM",@progbits,16
	.align	16
.LCPI0_6:
	.long	2147483648              # float -0.000000e+00
	.long	2147483648              # float -0.000000e+00
	.long	2147483648              # float -0.000000e+00
	.long	2147483648              # float -0.000000e+00
	.text
	.globl	interp_keypoint
	.align	16, 0x90
	.type	interp_keypoint,@function
interp_keypoint:                        # @interp_keypoint
	.cfi_startproc
.Lfunc_begin0:
	.loc	1 245 0                 # /home/ncl/eyoh/test/Emulation-CPU/_xocc_link_binary_container_1/impl/kernels/interp_keypoint/interp_keypoint/cpu_sources/image.cl:245:0
# BB#0:                                 # %preheader193
	pushq	%rbp
.Ltmp7:
	.cfi_def_cfa_offset 16
	pushq	%r15
.Ltmp8:
	.cfi_def_cfa_offset 24
	pushq	%r14
.Ltmp9:
	.cfi_def_cfa_offset 32
	pushq	%r13
.Ltmp10:
	.cfi_def_cfa_offset 40
	pushq	%r12
.Ltmp11:
	.cfi_def_cfa_offset 48
	pushq	%rbx
.Ltmp12:
	.cfi_def_cfa_offset 56
	subq	$152, %rsp
.Ltmp13:
	.cfi_def_cfa_offset 208
.Ltmp14:
	.cfi_offset %rbx, -56
.Ltmp15:
	.cfi_offset %r12, -48
.Ltmp16:
	.cfi_offset %r13, -40
.Ltmp17:
	.cfi_offset %r14, -32
.Ltmp18:
	.cfi_offset %r15, -24
.Ltmp19:
	.cfi_offset %rbp, -16
	#DEBUG_VALUE: interp_keypoint:start_keypoints <- ECX+0
.Ltmp20:
	#DEBUG_VALUE: interp_keypoint:__xlnx_rt_info <- RDI+0
	#DEBUG_VALUE: interp_keypoint:end_keypoints <- R8D+0
	#DEBUG_VALUE: interp_keypoint:peak_thresh <- XMM0+0
	#DEBUG_VALUE: interp_keypoint:InitSigma <- XMM1+0
	#DEBUG_VALUE: interp_keypoint:width <- R9D+0
	movl	%r9d, %ebx
.Ltmp21:
	#DEBUG_VALUE: interp_keypoint:width <- EBX+0
	movss	%xmm1, 76(%rsp)         # 4-byte Spill
.Ltmp22:
	#DEBUG_VALUE: interp_keypoint:InitSigma <- [%rsp+$76]+$0
	movss	%xmm0, 72(%rsp)         # 4-byte Spill
.Ltmp23:
	#DEBUG_VALUE: interp_keypoint:peak_thresh <- [%rsp+$72]+$0
	movl	%r8d, 68(%rsp)          # 4-byte Spill
.Ltmp24:
	#DEBUG_VALUE: interp_keypoint:end_keypoints <- [%rsp+$68]+$0
	movl	%ecx, 64(%rsp)          # 4-byte Spill
.Ltmp25:
	#DEBUG_VALUE: interp_keypoint:start_keypoints <- [%rsp+$64]+$0
	movq	%rdx, 56(%rsp)          # 8-byte Spill
	movq	%rsi, %r12
	movl	36(%rdi), %eax
	movl	%eax, 28(%rsp)          # 4-byte Spill
	testl	%eax, %eax
	je	.LBB0_6
.Ltmp26:
# BB#1:                                 # %for.header188.preheader.lr.ph
	#DEBUG_VALUE: interp_keypoint:start_keypoints <- [%rsp+$64]+$0
	#DEBUG_VALUE: interp_keypoint:end_keypoints <- [%rsp+$68]+$0
	#DEBUG_VALUE: interp_keypoint:peak_thresh <- [%rsp+$72]+$0
	#DEBUG_VALUE: interp_keypoint:width <- EBX+0
	movq	%rdi, 48(%rsp)          # 8-byte Spill
	movl	28(%rdi), %eax
	movl	%eax, 80(%rsp)          # 4-byte Spill
	movl	32(%rdi), %eax
	movl	%eax, 36(%rsp)          # 4-byte Spill
	movl	208(%rsp), %eax
	.loc	1 256 49 prologue_end   # /home/ncl/eyoh/test/Emulation-CPU/_xocc_link_binary_container_1/impl/kernels/interp_keypoint/interp_keypoint/cpu_sources/image.cl:256:49
.Ltmp27:
	movl	%eax, %ecx
	imull	%ebx, %ecx
	movl	%ecx, 44(%rsp)          # 4-byte Spill
	.loc	1 332 5                 # /home/ncl/eyoh/test/Emulation-CPU/_xocc_link_binary_container_1/impl/kernels/interp_keypoint/interp_keypoint/cpu_sources/image.cl:332:5
.Ltmp28:
	leal	-3(%rbx), %ecx
	.loc	1 328 5                 # /home/ncl/eyoh/test/Emulation-CPU/_xocc_link_binary_container_1/impl/kernels/interp_keypoint/interp_keypoint/cpu_sources/image.cl:328:5
	movl	%ecx, 124(%rsp)         # 4-byte Spill
	addl	$-3, %eax
	movl	%eax, 128(%rsp)         # 4-byte Spill
	movl	$0, 32(%rsp)            # 4-byte Folded Spill
.Ltmp29:
	.align	16, 0x90
.LBB0_2:                                # %for.header188.preheader
                                        # =>This Loop Header: Depth=1
                                        #     Child Loop BB0_3 Depth 2
                                        #       Child Loop BB0_7 Depth 3
                                        #         Child Loop BB0_11 Depth 4
	cmpl	$0, 36(%rsp)            # 4-byte Folded Reload
	movl	$0, %eax
	je	.LBB0_5
	.align	16, 0x90
.LBB0_3:                                # %for.header.preheader
                                        #   Parent Loop BB0_2 Depth=1
                                        # =>  This Loop Header: Depth=2
                                        #       Child Loop BB0_7 Depth 3
                                        #         Child Loop BB0_11 Depth 4
	movl	%eax, 40(%rsp)          # 4-byte Spill
	xorl	%eax, %eax
	cmpl	$0, 80(%rsp)            # 4-byte Folded Reload
	je	.LBB0_4
	.align	16, 0x90
.LBB0_7:                                # %.split
                                        #   Parent Loop BB0_2 Depth=1
                                        #     Parent Loop BB0_3 Depth=2
                                        # =>    This Loop Header: Depth=3
                                        #         Child Loop BB0_11 Depth 4
	movl	%eax, 120(%rsp)         # 4-byte Spill
	movl	%eax, %ecx
	movq	48(%rsp), %rax          # 8-byte Reload
	movl	16(%rax), %eax
	addq	%rcx, %rax
.Ltmp30:
	#DEBUG_VALUE: gid0 <- EAX+0
	.loc	1 248 19                # /home/ncl/eyoh/test/Emulation-CPU/_xocc_link_binary_container_1/impl/kernels/interp_keypoint/interp_keypoint/cpu_sources/image.cl:248:19
	cmpl	64(%rsp), %eax          # 4-byte Folded Reload
	jl	.LBB0_27
.Ltmp31:
# BB#8:                                 # %.split
                                        #   in Loop: Header=BB0_7 Depth=3
	cmpl	68(%rsp), %eax          # 4-byte Folded Reload
	jge	.LBB0_27
# BB#9:                                 #   in Loop: Header=BB0_7 Depth=3
	movl	%eax, %ecx
	shll	$2, %ecx
	movl	%ecx, %esi
	andl	$1073741820, %esi       # imm = 0x3FFFFFFC
	leal	2(%rsi), %r8d
	andl	$268435455, %eax        # imm = 0xFFFFFFF
	leal	3(,%rax,4), %eax
	orl	$1, %esi
	.loc	1 252 21                # /home/ncl/eyoh/test/Emulation-CPU/_xocc_link_binary_container_1/impl/kernels/interp_keypoint/interp_keypoint/cpu_sources/image.cl:252:21
.Ltmp32:
	movq	%rsi, 104(%rsp)         # 8-byte Spill
	cvttss2si	(%rdx,%rsi,4), %r14d
.Ltmp33:
	#DEBUG_VALUE: r <- R14D+0
	#DEBUG_VALUE: newr <- R14D+0
	cmpl	$-1, %r14d
	je	.LBB0_27
# BB#10:                                #   in Loop: Header=BB0_7 Depth=3
	#DEBUG_VALUE: newr <- R14D+0
	#DEBUG_VALUE: r <- R14D+0
	.loc	1 254 25                # /home/ncl/eyoh/test/Emulation-CPU/_xocc_link_binary_container_1/impl/kernels/interp_keypoint/interp_keypoint/cpu_sources/image.cl:254:25
	cvttss2si	(%rdx,%rax,4), %edi
.Ltmp34:
	#DEBUG_VALUE: scale <- EDI+0
	movl	%edi, 84(%rsp)          # 4-byte Spill
	movq	%rax, 88(%rsp)          # 8-byte Spill
	.loc	1 253 21                # /home/ncl/eyoh/test/Emulation-CPU/_xocc_link_binary_container_1/impl/kernels/interp_keypoint/interp_keypoint/cpu_sources/image.cl:253:21
	cvttss2si	(%rdx,%r8,4), %esi
.Ltmp35:
	#DEBUG_VALUE: c <- ESI+0
	#DEBUG_VALUE: newc <- ESI+0
	movq	%r8, 96(%rsp)           # 8-byte Spill
	andq	$1073741820, %rcx       # imm = 0x3FFFFFFC
	movq	%rcx, 112(%rsp)         # 8-byte Spill
	.loc	1 257 39                # /home/ncl/eyoh/test/Emulation-CPU/_xocc_link_binary_container_1/impl/kernels/interp_keypoint/interp_keypoint/cpu_sources/image.cl:257:39
.Ltmp36:
	movl	%edi, %r11d
	movl	44(%rsp), %eax          # 4-byte Reload
	imull	%eax, %r11d
.Ltmp37:
	#DEBUG_VALUE: index_dog <- R11D+0
	.loc	1 256 49                # /home/ncl/eyoh/test/Emulation-CPU/_xocc_link_binary_container_1/impl/kernels/interp_keypoint/interp_keypoint/cpu_sources/image.cl:256:49
	leal	-1(%rdi), %r9d
	.loc	1 258 48                # /home/ncl/eyoh/test/Emulation-CPU/_xocc_link_binary_container_1/impl/kernels/interp_keypoint/interp_keypoint/cpu_sources/image.cl:258:48
	leal	1(%rdi), %r10d
.Ltmp38:
	#DEBUG_VALUE: scale <- [%rsp+$84]+$0
	imull	%eax, %r10d
.Ltmp39:
	#DEBUG_VALUE: index_dog_next <- R10D+0
	.loc	1 256 49                # /home/ncl/eyoh/test/Emulation-CPU/_xocc_link_binary_container_1/impl/kernels/interp_keypoint/interp_keypoint/cpu_sources/image.cl:256:49
	imull	%eax, %r9d
.Ltmp40:
	#DEBUG_VALUE: index_dog_prev <- R9D+0
	movl	$1, %edi
	movl	$5, 136(%rsp)           # 4-byte Folded Spill
	movl	%esi, %r15d
.Ltmp41:
	#DEBUG_VALUE: c <- R15D+0
	#DEBUG_VALUE: newc <- R15D+0
	movl	%r14d, %r13d
.Ltmp42:
	#DEBUG_VALUE: r <- R13D+0
	#DEBUG_VALUE: newr <- R13D+0
	jmp	.LBB0_11
.Ltmp43:
	.align	16, 0x90
.LBB0_20:                               #   in Loop: Header=BB0_11 Depth=4
	#DEBUG_VALUE: r <- EBP+0
	#DEBUG_VALUE: c <- R8D+0
	#DEBUG_VALUE: solution2 <- [%rsp+$132]+$0
	#DEBUG_VALUE: solution0 <- [%rsp+$140]+$0
	#DEBUG_VALUE: solution1 <- [%rsp+$148]+$0
	#DEBUG_VALUE: peakval <- [%rsp+$144]+$0
	.loc	1 340 5                 # /home/ncl/eyoh/test/Emulation-CPU/_xocc_link_binary_container_1/impl/kernels/interp_keypoint/interp_keypoint/cpu_sources/image.cl:340:5
	cmpl	%ebp, %r14d
	sete	%dil
	setne	%r15b
	cmpl	%r8d, %esi
	sete	%cl
	setne	%al
	orb	%r15b, %al
	movzbl	%al, %eax
	subl	%eax, 136(%rsp)         # 4-byte Folded Spill
	andb	%dil, %cl
	movzbl	%cl, %edi
	xorl	$1, %edi
	movl	%r8d, %r15d
.Ltmp44:
	#DEBUG_VALUE: c <- R15D+0
	movl	%ebp, %r13d
.Ltmp45:
	#DEBUG_VALUE: r <- R13D+0
	.align	16, 0x90
.LBB0_11:                               # %._crit_edge32
                                        #   Parent Loop BB0_2 Depth=1
                                        #     Parent Loop BB0_3 Depth=2
                                        #       Parent Loop BB0_7 Depth=3
                                        # =>      This Inner Loop Header: Depth=4
	movl	%esi, %r8d
	movl	%r14d, %ebp
	.loc	1 270 4                 # /home/ncl/eyoh/test/Emulation-CPU/_xocc_link_binary_container_1/impl/kernels/interp_keypoint/interp_keypoint/cpu_sources/image.cl:270:4
	cmpl	$1, %edi
	jne	.LBB0_21
# BB#12:                                #   in Loop: Header=BB0_11 Depth=4
.Ltmp46:
	#DEBUG_VALUE: r <- EBP+0
	#DEBUG_VALUE: c <- R8D+0
	.loc	1 277 5                 # /home/ncl/eyoh/test/Emulation-CPU/_xocc_link_binary_container_1/impl/kernels/interp_keypoint/interp_keypoint/cpu_sources/image.cl:277:5
	leal	(%r8,%r11), %edi
	leal	1(%rbp), %r14d
.Ltmp47:
	#DEBUG_VALUE: newr <- R14D+0
	movl	%r14d, %eax
	imull	%ebx, %eax
	.loc	1 291 5                 # /home/ncl/eyoh/test/Emulation-CPU/_xocc_link_binary_container_1/impl/kernels/interp_keypoint/interp_keypoint/cpu_sources/image.cl:291:5
	leal	1(%rax,%rdi), %ecx
	movslq	%ecx, %rdx
	.loc	1 285 5                 # /home/ncl/eyoh/test/Emulation-CPU/_xocc_link_binary_container_1/impl/kernels/interp_keypoint/interp_keypoint/cpu_sources/image.cl:285:5
	leal	(%r8,%r9), %ecx
	leal	(%rcx,%rax), %esi
	movslq	%esi, %rsi
	movss	(%r12,%rsi,4), %xmm0
	.loc	1 277 5                 # /home/ncl/eyoh/test/Emulation-CPU/_xocc_link_binary_container_1/impl/kernels/interp_keypoint/interp_keypoint/cpu_sources/image.cl:277:5
	leal	-1(%rbp), %r15d
.Ltmp48:
	#DEBUG_VALUE: newr <- R15D+0
	movss	(%r12,%rdx,4), %xmm3
	movl	%r15d, %edx
	imull	%ebx, %edx
	.loc	1 291 5                 # /home/ncl/eyoh/test/Emulation-CPU/_xocc_link_binary_container_1/impl/kernels/interp_keypoint/interp_keypoint/cpu_sources/image.cl:291:5
	leal	1(%rdx,%rdi), %esi
	movslq	%esi, %rsi
	movss	(%r12,%rsi,4), %xmm1
	leal	-1(%rdx,%rdi), %esi
	movslq	%esi, %rsi
	subss	(%r12,%rsi,4), %xmm1
	leal	-1(%rax,%rdi), %esi
	movslq	%esi, %rsi
	subss	(%r12,%rsi,4), %xmm3
	.loc	1 285 5                 # /home/ncl/eyoh/test/Emulation-CPU/_xocc_link_binary_container_1/impl/kernels/interp_keypoint/interp_keypoint/cpu_sources/image.cl:285:5
	addl	%edx, %ecx
	movslq	%ecx, %rcx
	subss	(%r12,%rcx,4), %xmm0
	leal	(%r8,%r10), %ecx
	leal	(%rcx,%rax), %esi
	movslq	%esi, %rsi
	movss	(%r12,%rsi,4), %xmm14
	addl	%edx, %ecx
	movslq	%ecx, %rcx
	subss	(%r12,%rcx,4), %xmm14
	.loc	1 277 5                 # /home/ncl/eyoh/test/Emulation-CPU/_xocc_link_binary_container_1/impl/kernels/interp_keypoint/interp_keypoint/cpu_sources/image.cl:277:5
	addl	%edi, %edx
	movslq	%edx, %rcx
	addl	%edi, %eax
	movslq	%eax, %rax
	.loc	1 273 5                 # /home/ncl/eyoh/test/Emulation-CPU/_xocc_link_binary_container_1/impl/kernels/interp_keypoint/interp_keypoint/cpu_sources/image.cl:273:5
	movl	%ebp, %edi
	imull	%ebx, %edi
	.loc	1 285 5                 # /home/ncl/eyoh/test/Emulation-CPU/_xocc_link_binary_container_1/impl/kernels/interp_keypoint/interp_keypoint/cpu_sources/image.cl:285:5
	subss	%xmm0, %xmm14
	.loc	1 291 5                 # /home/ncl/eyoh/test/Emulation-CPU/_xocc_link_binary_container_1/impl/kernels/interp_keypoint/interp_keypoint/cpu_sources/image.cl:291:5
	subss	%xmm1, %xmm3
	movss	(%r12,%rcx,4), %xmm4
	.loc	1 273 5                 # /home/ncl/eyoh/test/Emulation-CPU/_xocc_link_binary_container_1/impl/kernels/interp_keypoint/interp_keypoint/cpu_sources/image.cl:273:5
	addl	%r8d, %edi
.Ltmp49:
	#DEBUG_VALUE: pos <- EDI+0
	.loc	1 288 5                 # /home/ncl/eyoh/test/Emulation-CPU/_xocc_link_binary_container_1/impl/kernels/interp_keypoint/interp_keypoint/cpu_sources/image.cl:288:5
	leal	1(%r9,%rdi), %ecx
	.loc	1 278 5                 # /home/ncl/eyoh/test/Emulation-CPU/_xocc_link_binary_container_1/impl/kernels/interp_keypoint/interp_keypoint/cpu_sources/image.cl:278:5
	leal	(%rdi,%r11), %edx
	.loc	1 281 5                 # /home/ncl/eyoh/test/Emulation-CPU/_xocc_link_binary_container_1/impl/kernels/interp_keypoint/interp_keypoint/cpu_sources/image.cl:281:5
	movslq	%edx, %rdx
	movss	(%r12,%rdx,4), %xmm12
	movss	%xmm12, 144(%rsp)       # 4-byte Spill
	addss	%xmm12, %xmm12
	movss	(%r12,%rax,4), %xmm10
	.loc	1 282 5                 # /home/ncl/eyoh/test/Emulation-CPU/_xocc_link_binary_container_1/impl/kernels/interp_keypoint/interp_keypoint/cpu_sources/image.cl:282:5
	movaps	%xmm4, %xmm0
	subss	%xmm12, %xmm0
	.loc	1 288 5                 # /home/ncl/eyoh/test/Emulation-CPU/_xocc_link_binary_container_1/impl/kernels/interp_keypoint/interp_keypoint/cpu_sources/image.cl:288:5
	movslq	%ecx, %rax
	movss	(%r12,%rax,4), %xmm1
	leal	-1(%r9,%rdi), %eax
	movslq	%eax, %rax
	movss	.LCPI0_4(%rip), %xmm2
	.loc	1 291 5                 # /home/ncl/eyoh/test/Emulation-CPU/_xocc_link_binary_container_1/impl/kernels/interp_keypoint/interp_keypoint/cpu_sources/image.cl:291:5
	mulss	%xmm2, %xmm3
.Ltmp50:
	#DEBUG_VALUE: H21 <- XMM3+0
	#DEBUG_VALUE: H12 <- XMM3+0
	.loc	1 285 5                 # /home/ncl/eyoh/test/Emulation-CPU/_xocc_link_binary_container_1/impl/kernels/interp_keypoint/interp_keypoint/cpu_sources/image.cl:285:5
	mulss	%xmm2, %xmm14
.Ltmp51:
	#DEBUG_VALUE: H01 <- XMM14+0
	#DEBUG_VALUE: H10 <- XMM14+0
	.loc	1 282 5                 # /home/ncl/eyoh/test/Emulation-CPU/_xocc_link_binary_container_1/impl/kernels/interp_keypoint/interp_keypoint/cpu_sources/image.cl:282:5
	addss	%xmm10, %xmm0
.Ltmp52:
	#DEBUG_VALUE: H11 <- XMM0+0
	movss	%xmm0, 140(%rsp)        # 4-byte Spill
	movaps	%xmm0, %xmm5
.Ltmp53:
	#DEBUG_VALUE: H11 <- XMM5+0
	.loc	1 288 5                 # /home/ncl/eyoh/test/Emulation-CPU/_xocc_link_binary_container_1/impl/kernels/interp_keypoint/interp_keypoint/cpu_sources/image.cl:288:5
	subss	(%r12,%rax,4), %xmm1
	leal	-1(%r10,%rdi), %eax
	movslq	%eax, %rax
	leal	1(%r10,%rdi), %ecx
	movslq	%ecx, %rcx
	movss	(%r12,%rcx,4), %xmm0
	subss	(%r12,%rax,4), %xmm0
	subss	%xmm1, %xmm0
	.loc	1 299 5                 # /home/ncl/eyoh/test/Emulation-CPU/_xocc_link_binary_container_1/impl/kernels/interp_keypoint/interp_keypoint/cpu_sources/image.cl:299:5
	movaps	%xmm14, %xmm11
	mulss	%xmm3, %xmm11
	.loc	1 288 5                 # /home/ncl/eyoh/test/Emulation-CPU/_xocc_link_binary_container_1/impl/kernels/interp_keypoint/interp_keypoint/cpu_sources/image.cl:288:5
	mulss	%xmm2, %xmm0
.Ltmp54:
	#DEBUG_VALUE: H02 <- XMM0+0
	#DEBUG_VALUE: H20 <- XMM0+0
	.loc	1 299 5                 # /home/ncl/eyoh/test/Emulation-CPU/_xocc_link_binary_container_1/impl/kernels/interp_keypoint/interp_keypoint/cpu_sources/image.cl:299:5
	movaps	%xmm11, %xmm1
	mulss	%xmm0, %xmm1
	movaps	%xmm0, %xmm13
	mulss	%xmm5, %xmm13
.Ltmp55:
	#DEBUG_VALUE: H11 <- [%rsp+$140]+$0
	movaps	%xmm13, %xmm2
	mulss	%xmm0, %xmm2
	subss	%xmm2, %xmm1
	movaps	%xmm0, %xmm15
	mulss	%xmm14, %xmm15
	movaps	%xmm15, %xmm8
	mulss	%xmm3, %xmm8
	addss	%xmm1, %xmm8
	.loc	1 277 5                 # /home/ncl/eyoh/test/Emulation-CPU/_xocc_link_binary_container_1/impl/kernels/interp_keypoint/interp_keypoint/cpu_sources/image.cl:277:5
	subss	%xmm4, %xmm10
	.loc	1 276 5                 # /home/ncl/eyoh/test/Emulation-CPU/_xocc_link_binary_container_1/impl/kernels/interp_keypoint/interp_keypoint/cpu_sources/image.cl:276:5
	leal	(%rdi,%r10), %eax
	movslq	%eax, %rax
	leal	(%rdi,%r9), %ecx
	movslq	%ecx, %rcx
	movss	(%r12,%rcx,4), %xmm1
	.loc	1 281 5                 # /home/ncl/eyoh/test/Emulation-CPU/_xocc_link_binary_container_1/impl/kernels/interp_keypoint/interp_keypoint/cpu_sources/image.cl:281:5
	movaps	%xmm1, %xmm7
	subss	%xmm12, %xmm7
	movss	(%r12,%rax,4), %xmm5
	addss	%xmm5, %xmm7
.Ltmp56:
	#DEBUG_VALUE: H00 <- XMM7+0
	.loc	1 276 5                 # /home/ncl/eyoh/test/Emulation-CPU/_xocc_link_binary_container_1/impl/kernels/interp_keypoint/interp_keypoint/cpu_sources/image.cl:276:5
	subss	%xmm1, %xmm5
	.loc	1 299 5                 # /home/ncl/eyoh/test/Emulation-CPU/_xocc_link_binary_container_1/impl/kernels/interp_keypoint/interp_keypoint/cpu_sources/image.cl:299:5
	movaps	%xmm7, %xmm2
	mulss	%xmm3, %xmm2
	movaps	%xmm2, %xmm1
	mulss	%xmm3, %xmm1
	subss	%xmm1, %xmm8
	.loc	1 278 5                 # /home/ncl/eyoh/test/Emulation-CPU/_xocc_link_binary_container_1/impl/kernels/interp_keypoint/interp_keypoint/cpu_sources/image.cl:278:5
	leal	-1(%r11,%rdi), %eax
	movslq	%eax, %rax
	movss	(%r12,%rax,4), %xmm4
	.loc	1 283 5                 # /home/ncl/eyoh/test/Emulation-CPU/_xocc_link_binary_container_1/impl/kernels/interp_keypoint/interp_keypoint/cpu_sources/image.cl:283:5
	movss	%xmm4, 148(%rsp)        # 4-byte Spill
	subss	%xmm12, %xmm4
	.loc	1 278 5                 # /home/ncl/eyoh/test/Emulation-CPU/_xocc_link_binary_container_1/impl/kernels/interp_keypoint/interp_keypoint/cpu_sources/image.cl:278:5
	leal	1(%r11,%rdi), %eax
	movslq	%eax, %rax
	movss	(%r12,%rax,4), %xmm9
	.loc	1 283 5                 # /home/ncl/eyoh/test/Emulation-CPU/_xocc_link_binary_container_1/impl/kernels/interp_keypoint/interp_keypoint/cpu_sources/image.cl:283:5
	addss	%xmm9, %xmm4
.Ltmp57:
	#DEBUG_VALUE: H22 <- XMM4+0
	.loc	1 302 5                 # /home/ncl/eyoh/test/Emulation-CPU/_xocc_link_binary_container_1/impl/kernels/interp_keypoint/interp_keypoint/cpu_sources/image.cl:302:5
	movaps	%xmm14, %xmm6
	mulss	%xmm4, %xmm6
	movaps	%xmm0, %xmm1
	mulss	%xmm3, %xmm1
	subss	%xmm6, %xmm1
.Ltmp58:
	#DEBUG_VALUE: K01 <- XMM1+0
	#DEBUG_VALUE: K10 <- XMM1+0
	.loc	1 303 5                 # /home/ncl/eyoh/test/Emulation-CPU/_xocc_link_binary_container_1/impl/kernels/interp_keypoint/interp_keypoint/cpu_sources/image.cl:303:5
	subss	%xmm13, %xmm11
.Ltmp59:
	#DEBUG_VALUE: K02 <- XMM11+0
	#DEBUG_VALUE: K20 <- XMM11+0
	.loc	1 306 5                 # /home/ncl/eyoh/test/Emulation-CPU/_xocc_link_binary_container_1/impl/kernels/interp_keypoint/interp_keypoint/cpu_sources/image.cl:306:5
	subss	%xmm2, %xmm15
.Ltmp60:
	#DEBUG_VALUE: K21 <- XMM15+0
	#DEBUG_VALUE: K12 <- XMM15+0
	.loc	1 301 5                 # /home/ncl/eyoh/test/Emulation-CPU/_xocc_link_binary_container_1/impl/kernels/interp_keypoint/interp_keypoint/cpu_sources/image.cl:301:5
	mulss	%xmm3, %xmm3
.Ltmp61:
	movss	140(%rsp), %xmm13       # 4-byte Reload
.Ltmp62:
	#DEBUG_VALUE: H11 <- XMM13+0
	movaps	%xmm13, %xmm2
	mulss	%xmm4, %xmm2
	subss	%xmm3, %xmm2
.Ltmp63:
	#DEBUG_VALUE: K00 <- XMM2+0
	.loc	1 305 5                 # /home/ncl/eyoh/test/Emulation-CPU/_xocc_link_binary_container_1/impl/kernels/interp_keypoint/interp_keypoint/cpu_sources/image.cl:305:5
	mulss	%xmm0, %xmm0
.Ltmp64:
	movaps	%xmm7, %xmm6
	mulss	%xmm4, %xmm6
	subss	%xmm0, %xmm6
.Ltmp65:
	#DEBUG_VALUE: K11 <- XMM6+0
	movss	.LCPI0_5(%rip), %xmm12
	.loc	1 277 5                 # /home/ncl/eyoh/test/Emulation-CPU/_xocc_link_binary_container_1/impl/kernels/interp_keypoint/interp_keypoint/cpu_sources/image.cl:277:5
	mulss	%xmm12, %xmm10
.Ltmp66:
	#DEBUG_VALUE: g1 <- XMM10+0
	.loc	1 276 5                 # /home/ncl/eyoh/test/Emulation-CPU/_xocc_link_binary_container_1/impl/kernels/interp_keypoint/interp_keypoint/cpu_sources/image.cl:276:5
	mulss	%xmm12, %xmm5
.Ltmp67:
	#DEBUG_VALUE: g0 <- XMM5+0
	.loc	1 319 5                 # /home/ncl/eyoh/test/Emulation-CPU/_xocc_link_binary_container_1/impl/kernels/interp_keypoint/interp_keypoint/cpu_sources/image.cl:319:5
	movaps	%xmm10, %xmm3
	mulss	%xmm15, %xmm3
	movaps	%xmm5, %xmm0
	mulss	%xmm11, %xmm0
	addss	%xmm3, %xmm0
	.loc	1 299 5                 # /home/ncl/eyoh/test/Emulation-CPU/_xocc_link_binary_container_1/impl/kernels/interp_keypoint/interp_keypoint/cpu_sources/image.cl:299:5
	mulss	%xmm14, %xmm14
.Ltmp68:
	movaps	%xmm14, %xmm3
	mulss	%xmm4, %xmm3
	subss	%xmm3, %xmm8
	.loc	1 318 5                 # /home/ncl/eyoh/test/Emulation-CPU/_xocc_link_binary_container_1/impl/kernels/interp_keypoint/interp_keypoint/cpu_sources/image.cl:318:5
	mulss	%xmm10, %xmm6
.Ltmp69:
	movaps	%xmm5, %xmm3
	mulss	%xmm1, %xmm3
	addss	%xmm6, %xmm3
	.loc	1 317 5                 # /home/ncl/eyoh/test/Emulation-CPU/_xocc_link_binary_container_1/impl/kernels/interp_keypoint/interp_keypoint/cpu_sources/image.cl:317:5
	mulss	%xmm10, %xmm1
.Ltmp70:
	mulss	%xmm5, %xmm2
.Ltmp71:
	addss	%xmm1, %xmm2
	.loc	1 299 5                 # /home/ncl/eyoh/test/Emulation-CPU/_xocc_link_binary_container_1/impl/kernels/interp_keypoint/interp_keypoint/cpu_sources/image.cl:299:5
	mulss	%xmm13, %xmm7
.Ltmp72:
	.loc	1 278 5                 # /home/ncl/eyoh/test/Emulation-CPU/_xocc_link_binary_container_1/impl/kernels/interp_keypoint/interp_keypoint/cpu_sources/image.cl:278:5
	subss	148(%rsp), %xmm9        # 4-byte Folded Reload
	mulss	%xmm12, %xmm9
.Ltmp73:
	#DEBUG_VALUE: g2 <- XMM9+0
	.loc	1 317 5                 # /home/ncl/eyoh/test/Emulation-CPU/_xocc_link_binary_container_1/impl/kernels/interp_keypoint/interp_keypoint/cpu_sources/image.cl:317:5
	mulss	%xmm9, %xmm11
.Ltmp74:
	addss	%xmm2, %xmm11
	.loc	1 309 5                 # /home/ncl/eyoh/test/Emulation-CPU/_xocc_link_binary_container_1/impl/kernels/interp_keypoint/interp_keypoint/cpu_sources/image.cl:309:5
	movaps	%xmm7, %xmm1
	subss	%xmm14, %xmm1
.Ltmp75:
	#DEBUG_VALUE: K22 <- XMM1+0
	.loc	1 299 5                 # /home/ncl/eyoh/test/Emulation-CPU/_xocc_link_binary_container_1/impl/kernels/interp_keypoint/interp_keypoint/cpu_sources/image.cl:299:5
	mulss	%xmm4, %xmm7
	.loc	1 318 5                 # /home/ncl/eyoh/test/Emulation-CPU/_xocc_link_binary_container_1/impl/kernels/interp_keypoint/interp_keypoint/cpu_sources/image.cl:318:5
	mulss	%xmm9, %xmm15
.Ltmp76:
	addss	%xmm3, %xmm15
	.loc	1 299 5                 # /home/ncl/eyoh/test/Emulation-CPU/_xocc_link_binary_container_1/impl/kernels/interp_keypoint/interp_keypoint/cpu_sources/image.cl:299:5
	addss	%xmm8, %xmm7
.Ltmp77:
	#DEBUG_VALUE: det <- XMM7+0
	.loc	1 319 5                 # /home/ncl/eyoh/test/Emulation-CPU/_xocc_link_binary_container_1/impl/kernels/interp_keypoint/interp_keypoint/cpu_sources/image.cl:319:5
	mulss	%xmm9, %xmm1
.Ltmp78:
	addss	%xmm0, %xmm1
	movss	.LCPI0_6(%rip), %xmm0
	xorps	%xmm0, %xmm1
	divss	%xmm7, %xmm1
.Ltmp79:
	#DEBUG_VALUE: solution2 <- XMM1+0
	.loc	1 317 5                 # /home/ncl/eyoh/test/Emulation-CPU/_xocc_link_binary_container_1/impl/kernels/interp_keypoint/interp_keypoint/cpu_sources/image.cl:317:5
	xorps	%xmm0, %xmm11
	divss	%xmm7, %xmm11
.Ltmp80:
	#DEBUG_VALUE: solution0 <- XMM11+0
	.loc	1 318 5                 # /home/ncl/eyoh/test/Emulation-CPU/_xocc_link_binary_container_1/impl/kernels/interp_keypoint/interp_keypoint/cpu_sources/image.cl:318:5
	movss	%xmm11, 140(%rsp)       # 4-byte Spill
	xorps	%xmm0, %xmm15
	divss	%xmm7, %xmm15
.Ltmp81:
	#DEBUG_VALUE: solution1 <- XMM15+0
	.loc	1 322 5                 # /home/ncl/eyoh/test/Emulation-CPU/_xocc_link_binary_container_1/impl/kernels/interp_keypoint/interp_keypoint/cpu_sources/image.cl:322:5
	movss	%xmm15, 148(%rsp)       # 4-byte Spill
	mulss	%xmm15, %xmm10
.Ltmp82:
	mulss	%xmm11, %xmm5
.Ltmp83:
	#DEBUG_VALUE: solution0 <- [%rsp+$140]+$0
	addss	%xmm10, %xmm5
	mulss	%xmm1, %xmm9
.Ltmp84:
	addss	%xmm5, %xmm9
	mulss	%xmm12, %xmm9
	addss	144(%rsp), %xmm9        # 4-byte Folded Reload
.Ltmp85:
	#DEBUG_VALUE: peakval <- XMM9+0
	movss	%xmm9, 144(%rsp)        # 4-byte Spill
.Ltmp86:
	#DEBUG_VALUE: peakval <- [%rsp+$144]+$0
	.loc	1 318 5                 # /home/ncl/eyoh/test/Emulation-CPU/_xocc_link_binary_container_1/impl/kernels/interp_keypoint/interp_keypoint/cpu_sources/image.cl:318:5
	ucomiss	.LCPI0_7(%rip), %xmm15
.Ltmp87:
	#DEBUG_VALUE: solution1 <- [%rsp+$148]+$0
	jbe	.LBB0_14
.Ltmp88:
# BB#13:                                #   in Loop: Header=BB0_11 Depth=4
	cmpl	128(%rsp), %ebp         # 4-byte Folded Reload
	jl	.LBB0_15
.LBB0_14:                               # %._crit_edge24
                                        #   in Loop: Header=BB0_11 Depth=4
.Ltmp89:
	#DEBUG_VALUE: newr <- R15D+0
	#DEBUG_VALUE: r <- EBP+0
	#DEBUG_VALUE: c <- R8D+0
	#DEBUG_VALUE: solution2 <- XMM1+0
	#DEBUG_VALUE: solution0 <- [%rsp+$140]+$0
	#DEBUG_VALUE: solution1 <- [%rsp+$148]+$0
	#DEBUG_VALUE: peakval <- [%rsp+$144]+$0
	movss	.LCPI0_8(%rip), %xmm0
	ucomiss	148(%rsp), %xmm0        # 4-byte Folded Reload
	.loc	1 330 10                # /home/ncl/eyoh/test/Emulation-CPU/_xocc_link_binary_container_1/impl/kernels/interp_keypoint/interp_keypoint/cpu_sources/image.cl:330:10
	seta	%al
	cmpl	$3, %ebp
	setg	%cl
	testb	%cl, %al
	cmovel	%ebp, %r15d
.Ltmp90:
	movl	%r15d, %r14d
.LBB0_15:                               # %._crit_edge26
                                        #   in Loop: Header=BB0_11 Depth=4
	#DEBUG_VALUE: r <- EBP+0
	#DEBUG_VALUE: c <- R8D+0
	#DEBUG_VALUE: solution2 <- XMM1+0
	#DEBUG_VALUE: solution0 <- [%rsp+$140]+$0
	#DEBUG_VALUE: solution1 <- [%rsp+$148]+$0
	#DEBUG_VALUE: peakval <- [%rsp+$144]+$0
	.loc	1 332 5                 # /home/ncl/eyoh/test/Emulation-CPU/_xocc_link_binary_container_1/impl/kernels/interp_keypoint/interp_keypoint/cpu_sources/image.cl:332:5
	ucomiss	.LCPI0_7(%rip), %xmm1
	jbe	.LBB0_18
.Ltmp91:
# BB#16:                                # %._crit_edge26
                                        #   in Loop: Header=BB0_11 Depth=4
	cmpl	124(%rsp), %r8d         # 4-byte Folded Reload
	jge	.LBB0_18
# BB#17:                                #   in Loop: Header=BB0_11 Depth=4
	.loc	1 333 6                 # /home/ncl/eyoh/test/Emulation-CPU/_xocc_link_binary_container_1/impl/kernels/interp_keypoint/interp_keypoint/cpu_sources/image.cl:333:6
	leal	1(%r8), %esi
.Ltmp92:
	#DEBUG_VALUE: newc <- ESI+0
	jmp	.LBB0_19
.Ltmp93:
.LBB0_18:                               # %._crit_edge28
                                        #   in Loop: Header=BB0_11 Depth=4
	#DEBUG_VALUE: r <- EBP+0
	#DEBUG_VALUE: c <- R8D+0
	#DEBUG_VALUE: solution2 <- XMM1+0
	#DEBUG_VALUE: solution0 <- [%rsp+$140]+$0
	#DEBUG_VALUE: solution1 <- [%rsp+$148]+$0
	#DEBUG_VALUE: peakval <- [%rsp+$144]+$0
	movss	.LCPI0_8(%rip), %xmm0
	ucomiss	%xmm1, %xmm0
	.loc	1 334 10                # /home/ncl/eyoh/test/Emulation-CPU/_xocc_link_binary_container_1/impl/kernels/interp_keypoint/interp_keypoint/cpu_sources/image.cl:334:10
	seta	%al
	cmpl	$3, %r8d
	setg	%cl
	andb	%al, %cl
	movzbl	%cl, %eax
	movl	%r8d, %esi
	subl	%eax, %esi
.Ltmp94:
.LBB0_19:                               # %._crit_edge30
                                        #   in Loop: Header=BB0_11 Depth=4
	#DEBUG_VALUE: r <- EBP+0
	#DEBUG_VALUE: c <- R8D+0
	#DEBUG_VALUE: solution2 <- XMM1+0
	#DEBUG_VALUE: solution0 <- [%rsp+$140]+$0
	#DEBUG_VALUE: solution1 <- [%rsp+$148]+$0
	#DEBUG_VALUE: peakval <- [%rsp+$144]+$0
	movss	%xmm1, 132(%rsp)        # 4-byte Spill
.Ltmp95:
	#DEBUG_VALUE: solution2 <- [%rsp+$132]+$0
	xorl	%edi, %edi
	cmpl	$0, 136(%rsp)           # 4-byte Folded Reload
	movl	%r8d, %r15d
	movl	%ebp, %r13d
	jle	.LBB0_11
	jmp	.LBB0_20
.Ltmp96:
.LBB0_21:                               #   in Loop: Header=BB0_7 Depth=3
	movss	140(%rsp), %xmm0        # 4-byte Reload
	callq	hls_fabs@PLT
	movl	$-1082130432, %eax      # imm = 0xFFFFFFFFBF800000
	movss	.LCPI0_1(%rip), %xmm1
	ucomiss	%xmm0, %xmm1
	movss	.LCPI0_0(%rip), %xmm0
	movl	$-1082130432, %ecx      # imm = 0xFFFFFFFFBF800000
	movl	$-1082130432, %esi      # imm = 0xFFFFFFFFBF800000
	jb	.LBB0_26
# BB#22:                                #   in Loop: Header=BB0_7 Depth=3
	movss	148(%rsp), %xmm0        # 4-byte Reload
	callq	hls_fabs@PLT
	movl	$-1082130432, %eax      # imm = 0xFFFFFFFFBF800000
	movss	.LCPI0_1(%rip), %xmm1
	ucomiss	%xmm0, %xmm1
	movss	.LCPI0_0(%rip), %xmm0
	movl	$-1082130432, %ecx      # imm = 0xFFFFFFFFBF800000
	movl	$-1082130432, %esi      # imm = 0xFFFFFFFFBF800000
	jb	.LBB0_26
# BB#23:                                #   in Loop: Header=BB0_7 Depth=3
	movss	132(%rsp), %xmm0        # 4-byte Reload
	callq	hls_fabs@PLT
	movl	$-1082130432, %eax      # imm = 0xFFFFFFFFBF800000
	movss	.LCPI0_1(%rip), %xmm1
	ucomiss	%xmm0, %xmm1
	movss	.LCPI0_0(%rip), %xmm0
	movl	$-1082130432, %ecx      # imm = 0xFFFFFFFFBF800000
	movl	$-1082130432, %esi      # imm = 0xFFFFFFFFBF800000
	jb	.LBB0_26
# BB#24:                                #   in Loop: Header=BB0_7 Depth=3
	movss	144(%rsp), %xmm0        # 4-byte Reload
	callq	hls_fabs@PLT
	movl	$-1082130432, %eax      # imm = 0xFFFFFFFFBF800000
	ucomiss	72(%rsp), %xmm0         # 4-byte Folded Reload
	movss	.LCPI0_0(%rip), %xmm0
	movl	$-1082130432, %ecx      # imm = 0xFFFFFFFFBF800000
	movl	$-1082130432, %esi      # imm = 0xFFFFFFFFBF800000
	jb	.LBB0_26
# BB#25:                                #   in Loop: Header=BB0_7 Depth=3
	.loc	1 356 25                # /home/ncl/eyoh/test/Emulation-CPU/_xocc_link_binary_container_1/impl/kernels/interp_keypoint/interp_keypoint/cpu_sources/image.cl:356:25
.Ltmp97:
	movl	84(%rsp), %eax          # 4-byte Reload
	xorps	%xmm1, %xmm1
	cvtsi2ss	%eax, %xmm1
	addss	140(%rsp), %xmm1        # 4-byte Folded Reload
	divss	.LCPI0_2(%rip), %xmm1
	.loc	1 355 5                 # /home/ncl/eyoh/test/Emulation-CPU/_xocc_link_binary_container_1/impl/kernels/interp_keypoint/interp_keypoint/cpu_sources/image.cl:355:5
	xorps	%xmm0, %xmm0
	cvtsi2ss	%r15d, %xmm0
	addss	132(%rsp), %xmm0        # 4-byte Folded Reload
	movss	%xmm0, 140(%rsp)        # 4-byte Spill
	movss	.LCPI0_3(%rip), %xmm0
	callq	hls_pow@PLT
	.loc	1 357 4                 # /home/ncl/eyoh/test/Emulation-CPU/_xocc_link_binary_container_1/impl/kernels/interp_keypoint/interp_keypoint/cpu_sources/image.cl:357:4
	movss	140(%rsp), %xmm1        # 4-byte Reload
	movd	%xmm1, %ecx
	.loc	1 354 5                 # /home/ncl/eyoh/test/Emulation-CPU/_xocc_link_binary_container_1/impl/kernels/interp_keypoint/interp_keypoint/cpu_sources/image.cl:354:5
	xorps	%xmm1, %xmm1
	cvtsi2ss	%r13d, %xmm1
	addss	148(%rsp), %xmm1        # 4-byte Folded Reload
	.loc	1 357 4                 # /home/ncl/eyoh/test/Emulation-CPU/_xocc_link_binary_container_1/impl/kernels/interp_keypoint/interp_keypoint/cpu_sources/image.cl:357:4
	movd	%xmm1, %eax
	.loc	1 356 25                # /home/ncl/eyoh/test/Emulation-CPU/_xocc_link_binary_container_1/impl/kernels/interp_keypoint/interp_keypoint/cpu_sources/image.cl:356:25
	mulss	76(%rsp), %xmm0         # 4-byte Folded Reload
	.loc	1 357 4                 # /home/ncl/eyoh/test/Emulation-CPU/_xocc_link_binary_container_1/impl/kernels/interp_keypoint/interp_keypoint/cpu_sources/image.cl:357:4
	movd	%xmm0, %esi
	movss	144(%rsp), %xmm0        # 4-byte Reload
.Ltmp98:
.LBB0_26:                               # %._crit_edge36
                                        #   in Loop: Header=BB0_7 Depth=3
	movq	56(%rsp), %rdx          # 8-byte Reload
	movq	112(%rsp), %rdi         # 8-byte Reload
	movss	%xmm0, (%rdx,%rdi,4)
	movq	104(%rsp), %rdi         # 8-byte Reload
	movl	%eax, (%rdx,%rdi,4)
	movq	96(%rsp), %rax          # 8-byte Reload
	movl	%ecx, (%rdx,%rax,4)
	movq	88(%rsp), %rax          # 8-byte Reload
	movl	%esi, (%rdx,%rax,4)
.LBB0_27:                               # %for.body
                                        #   in Loop: Header=BB0_7 Depth=3
	movl	120(%rsp), %eax         # 4-byte Reload
	incl	%eax
	cmpl	80(%rsp), %eax          # 4-byte Folded Reload
	jne	.LBB0_7
.LBB0_4:                                # %for.body189
                                        #   in Loop: Header=BB0_3 Depth=2
	movl	40(%rsp), %eax          # 4-byte Reload
	incl	%eax
	cmpl	36(%rsp), %eax          # 4-byte Folded Reload
	jne	.LBB0_3
.LBB0_5:                                # %for.body195
                                        #   in Loop: Header=BB0_2 Depth=1
	movl	32(%rsp), %eax          # 4-byte Reload
	incl	%eax
	movl	%eax, 32(%rsp)          # 4-byte Spill
	cmpl	28(%rsp), %eax          # 4-byte Folded Reload
	jne	.LBB0_2
.LBB0_6:                                # %rexit_edge
	.loc	1 370 1                 # /home/ncl/eyoh/test/Emulation-CPU/_xocc_link_binary_container_1/impl/kernels/interp_keypoint/interp_keypoint/cpu_sources/image.cl:370:1
	addq	$152, %rsp
	popq	%rbx
	popq	%r12
	popq	%r13
	popq	%r14
	popq	%r15
	popq	%rbp
	ret
.Ltmp99:
.Ltmp100:
	.size	interp_keypoint, .Ltmp100-interp_keypoint
.Lfunc_end0:
	.cfi_endproc

	.type	__spir_rt_info,@object  # @__spir_rt_info
	.bss
	.globl	__spir_rt_info
	.align	8
__spir_rt_info:
	.quad	0
	.size	__spir_rt_info, 8

	.cfi_sections .debug_frame
	.text
.Ltext_end:
	.data
.Ldata_end:
	.text
.Lsection_end1:
	.section	".note.GNU-stack","",@progbits
