	.file	"/home/ncl/eyoh/test/Emulation-CPU/_xocc_link_binary_container_1/impl/build/cpu_em/binary_container_1/csim/compute_gradient_orientation/compute_gradient_orientation.clc.csim_cu-opt.bc"
	.file	1 "/home/ncl/eyoh/test/Emulation-CPU/_xocc_link_binary_container_1/impl/kernels/compute_gradient_orientation/compute_gradient_orientation/cpu_sources/image.cl"
	.text
.Ltext_begin:
	.data
	.section	.rodata.cst16,"aM",@progbits,16
	.align	16
.LCPI0_0:
	.long	2147483648              # float -0.000000e+00
	.long	2147483648              # float -0.000000e+00
	.long	2147483648              # float -0.000000e+00
	.long	2147483648              # float -0.000000e+00
	.text
	.globl	compute_gradient_orientation
	.align	16, 0x90
	.type	compute_gradient_orientation,@function
compute_gradient_orientation:           # @compute_gradient_orientation
	.cfi_startproc
.Lfunc_begin0:
	.loc	1 53 0                  # /home/ncl/eyoh/test/Emulation-CPU/_xocc_link_binary_container_1/impl/kernels/compute_gradient_orientation/compute_gradient_orientation/cpu_sources/image.cl:53:0
# BB#0:                                 # %preheader54
	pushq	%rbp
.Ltmp7:
	.cfi_def_cfa_offset 16
	pushq	%r15
.Ltmp8:
	.cfi_def_cfa_offset 24
	pushq	%r14
.Ltmp9:
	.cfi_def_cfa_offset 32
	pushq	%r13
.Ltmp10:
	.cfi_def_cfa_offset 40
	pushq	%r12
.Ltmp11:
	.cfi_def_cfa_offset 48
	pushq	%rbx
.Ltmp12:
	.cfi_def_cfa_offset 56
	subq	$72, %rsp
.Ltmp13:
	.cfi_def_cfa_offset 128
.Ltmp14:
	.cfi_offset %rbx, -56
.Ltmp15:
	.cfi_offset %r12, -48
.Ltmp16:
	.cfi_offset %r13, -40
.Ltmp17:
	.cfi_offset %r14, -32
.Ltmp18:
	.cfi_offset %r15, -24
.Ltmp19:
	.cfi_offset %rbp, -16
	#DEBUG_VALUE: compute_gradient_orientation:width <- R8D+0
	#DEBUG_VALUE: compute_gradient_orientation:height <- R9D+0
.Ltmp20:
	#DEBUG_VALUE: compute_gradient_orientation:__xlnx_rt_info <- RDI+0
	movl	%r9d, 44(%rsp)          # 4-byte Spill
.Ltmp21:
	#DEBUG_VALUE: compute_gradient_orientation:height <- [%rsp+$44]+$0
	movl	%r8d, %ebp
.Ltmp22:
	#DEBUG_VALUE: compute_gradient_orientation:width <- EBP+0
	movq	%rcx, 32(%rsp)          # 8-byte Spill
	movq	%rdx, 24(%rsp)          # 8-byte Spill
	movq	%rsi, %r12
	movl	36(%rdi), %eax
	movl	%eax, 8(%rsp)           # 4-byte Spill
	testl	%eax, %eax
	je	.LBB0_7
.Ltmp23:
# BB#1:                                 # %for.header49.preheader.lr.ph
	#DEBUG_VALUE: compute_gradient_orientation:width <- EBP+0
	#DEBUG_VALUE: compute_gradient_orientation:height <- [%rsp+$44]+$0
	movq	%rdi, 64(%rsp)          # 8-byte Spill
	movl	28(%rdi), %eax
	movl	%eax, 48(%rsp)          # 4-byte Spill
	movl	32(%rdi), %eax
	.loc	1 71 14 prologue_end    # /home/ncl/eyoh/test/Emulation-CPU/_xocc_link_binary_container_1/impl/kernels/compute_gradient_orientation/compute_gradient_orientation/cpu_sources/image.cl:71:14
.Ltmp24:
	movl	%eax, 16(%rsp)          # 4-byte Spill
	movl	44(%rsp), %eax          # 4-byte Reload
	leal	-1(%rax), %eax
	movl	%eax, 20(%rsp)          # 4-byte Spill
	xorl	%eax, %eax
.Ltmp25:
	.align	16, 0x90
.LBB0_2:                                # %for.header49.preheader
                                        # =>This Loop Header: Depth=1
                                        #     Child Loop BB0_4 Depth 2
                                        #       Child Loop BB0_8 Depth 3
	movl	%eax, 12(%rsp)          # 4-byte Spill
	cmpl	$0, 16(%rsp)            # 4-byte Folded Reload
	je	.LBB0_6
# BB#3:                                 #   in Loop: Header=BB0_2 Depth=1
	movl	$-1, 52(%rsp)           # 4-byte Folded Spill
	movl	$1, %r14d
	xorl	%ebx, %ebx
	.align	16, 0x90
.LBB0_4:                                # %for.header.preheader
                                        #   Parent Loop BB0_2 Depth=1
                                        # =>  This Loop Header: Depth=2
                                        #       Child Loop BB0_8 Depth 3
	xorl	%r15d, %r15d
	cmpl	$0, 48(%rsp)            # 4-byte Folded Reload
	je	.LBB0_5
	.align	16, 0x90
.LBB0_8:                                # %.split
                                        #   Parent Loop BB0_2 Depth=1
                                        #     Parent Loop BB0_4 Depth=2
                                        # =>    This Inner Loop Header: Depth=3
	movq	64(%rsp), %rax          # 8-byte Reload
	movl	20(%rax), %eax
	.loc	1 55 19                 # /home/ncl/eyoh/test/Emulation-CPU/_xocc_link_binary_container_1/impl/kernels/compute_gradient_orientation/compute_gradient_orientation/cpu_sources/image.cl:55:19
	leal	(%rax,%rbx), %edx
.Ltmp26:
	#DEBUG_VALUE: gid1 <- EDX+0
	cmpl	44(%rsp), %edx          # 4-byte Folded Reload
	jge	.LBB0_23
# BB#9:                                 # %.split
                                        #   in Loop: Header=BB0_8 Depth=3
	#DEBUG_VALUE: gid1 <- EDX+0
	movq	64(%rsp), %rcx          # 8-byte Reload
	movl	16(%rcx), %ecx
	.loc	1 58 2                  # /home/ncl/eyoh/test/Emulation-CPU/_xocc_link_binary_container_1/impl/kernels/compute_gradient_orientation/compute_gradient_orientation/cpu_sources/image.cl:58:2
	leal	(%r15,%rcx), %esi
	cmpl	%ebp, %esi
	jge	.LBB0_23
# BB#10:                                #   in Loop: Header=BB0_8 Depth=3
	#DEBUG_VALUE: gid1 <- EDX+0
	movl	%ecx, %edi
	negl	%edi
	.loc	1 63 9                  # /home/ncl/eyoh/test/Emulation-CPU/_xocc_link_binary_container_1/impl/kernels/compute_gradient_orientation/compute_gradient_orientation/cpu_sources/image.cl:63:9
.Ltmp27:
	movl	%ebp, %esi
	imull	%edx, %esi
	addl	%ecx, %esi
	leal	(%r15,%rsi), %r13d
	cmpl	%r15d, %edi
	jne	.LBB0_13
# BB#11:                                #   in Loop: Header=BB0_8 Depth=3
	#DEBUG_VALUE: gid1 <- EDX+0
	.loc	1 64 4                  # /home/ncl/eyoh/test/Emulation-CPU/_xocc_link_binary_container_1/impl/kernels/compute_gradient_orientation/compute_gradient_orientation/cpu_sources/image.cl:64:4
	leal	1(%r15,%rsi), %esi
	movslq	%esi, %rsi
	movss	(%r12,%rsi,4), %xmm0
	movslq	%r13d, %rsi
	jmp	.LBB0_12
.Ltmp28:
.LBB0_13:                               #   in Loop: Header=BB0_8 Depth=3
	#DEBUG_VALUE: gid1 <- EDX+0
	.loc	1 58 2                  # /home/ncl/eyoh/test/Emulation-CPU/_xocc_link_binary_container_1/impl/kernels/compute_gradient_orientation/compute_gradient_orientation/cpu_sources/image.cl:58:2
	movl	%ebp, %edi
	subl	%ecx, %edi
	decl	%edi
	.loc	1 65 14                 # /home/ncl/eyoh/test/Emulation-CPU/_xocc_link_binary_container_1/impl/kernels/compute_gradient_orientation/compute_gradient_orientation/cpu_sources/image.cl:65:14
.Ltmp29:
	cmpl	%r15d, %edi
	jne	.LBB0_15
# BB#14:                                #   in Loop: Header=BB0_8 Depth=3
	#DEBUG_VALUE: gid1 <- EDX+0
	.loc	1 66 4                  # /home/ncl/eyoh/test/Emulation-CPU/_xocc_link_binary_container_1/impl/kernels/compute_gradient_orientation/compute_gradient_orientation/cpu_sources/image.cl:66:4
	movslq	%r13d, %rdi
	movss	(%r12,%rdi,4), %xmm0
	leal	-1(%r15,%rsi), %esi
	movslq	%esi, %rsi
.Ltmp30:
.LBB0_12:                               #   in Loop: Header=BB0_8 Depth=3
	.loc	1 64 4                  # /home/ncl/eyoh/test/Emulation-CPU/_xocc_link_binary_container_1/impl/kernels/compute_gradient_orientation/compute_gradient_orientation/cpu_sources/image.cl:64:4
	subss	(%r12,%rsi,4), %xmm0
	addss	%xmm0, %xmm0
.Ltmp31:
	#DEBUG_VALUE: xgrad <- XMM0+0
	jmp	.LBB0_16
.Ltmp32:
.LBB0_15:                               #   in Loop: Header=BB0_8 Depth=3
	#DEBUG_VALUE: gid1 <- EDX+0
	.loc	1 68 4                  # /home/ncl/eyoh/test/Emulation-CPU/_xocc_link_binary_container_1/impl/kernels/compute_gradient_orientation/compute_gradient_orientation/cpu_sources/image.cl:68:4
	leal	1(%r15,%rsi), %edi
	movslq	%edi, %rdi
	movss	(%r12,%rdi,4), %xmm0
	leal	-1(%r15,%rsi), %esi
	movslq	%esi, %rsi
	subss	(%r12,%rsi,4), %xmm0
.Ltmp33:
	#DEBUG_VALUE: xgrad <- XMM0+0
.LBB0_16:                               #   in Loop: Header=BB0_8 Depth=3
	#DEBUG_VALUE: gid1 <- EDX+0
	.loc	1 69 9                  # /home/ncl/eyoh/test/Emulation-CPU/_xocc_link_binary_container_1/impl/kernels/compute_gradient_orientation/compute_gradient_orientation/cpu_sources/image.cl:69:9
	testl	%edx, %edx
	jne	.LBB0_18
.Ltmp34:
# BB#17:                                #   in Loop: Header=BB0_8 Depth=3
	.loc	1 70 4                  # /home/ncl/eyoh/test/Emulation-CPU/_xocc_link_binary_container_1/impl/kernels/compute_gradient_orientation/compute_gradient_orientation/cpu_sources/image.cl:70:4
	movslq	%r13d, %rdx
	movss	(%r12,%rdx,4), %xmm1
	addl	%r14d, %eax
	imull	%ebp, %eax
	addl	%eax, %ecx
	addl	%r15d, %ecx
	movslq	%ecx, %rax
	jmp	.LBB0_20
.LBB0_18:                               #   in Loop: Header=BB0_8 Depth=3
.Ltmp35:
	#DEBUG_VALUE: gid1 <- EDX+0
	.loc	1 72 4                  # /home/ncl/eyoh/test/Emulation-CPU/_xocc_link_binary_container_1/impl/kernels/compute_gradient_orientation/compute_gradient_orientation/cpu_sources/image.cl:72:4
	movl	52(%rsp), %esi          # 4-byte Reload
	leal	(%rsi,%rax), %esi
	imull	%ebp, %esi
	addl	%ecx, %esi
	addl	%r15d, %esi
	movslq	%esi, %rsi
	movss	(%r12,%rsi,4), %xmm1
	.loc	1 71 14                 # /home/ncl/eyoh/test/Emulation-CPU/_xocc_link_binary_container_1/impl/kernels/compute_gradient_orientation/compute_gradient_orientation/cpu_sources/image.cl:71:14
	cmpl	20(%rsp), %edx          # 4-byte Folded Reload
	jne	.LBB0_21
.Ltmp36:
# BB#19:                                #   in Loop: Header=BB0_8 Depth=3
	.loc	1 72 4                  # /home/ncl/eyoh/test/Emulation-CPU/_xocc_link_binary_container_1/impl/kernels/compute_gradient_orientation/compute_gradient_orientation/cpu_sources/image.cl:72:4
	movslq	%r13d, %rax
.LBB0_20:                               #   in Loop: Header=BB0_8 Depth=3
	subss	(%r12,%rax,4), %xmm1
	addss	%xmm1, %xmm1
.Ltmp37:
	#DEBUG_VALUE: ygrad <- XMM1+0
	jmp	.LBB0_22
.Ltmp38:
.LBB0_21:                               #   in Loop: Header=BB0_8 Depth=3
	.loc	1 74 4                  # /home/ncl/eyoh/test/Emulation-CPU/_xocc_link_binary_container_1/impl/kernels/compute_gradient_orientation/compute_gradient_orientation/cpu_sources/image.cl:74:4
	addl	%r14d, %eax
	imull	%ebp, %eax
	addl	%eax, %ecx
	addl	%r15d, %ecx
	movslq	%ecx, %rax
	subss	(%r12,%rax,4), %xmm1
.Ltmp39:
	#DEBUG_VALUE: ygrad <- XMM1+0
.LBB0_22:                               #   in Loop: Header=BB0_8 Depth=3
	movss	%xmm1, 56(%rsp)         # 4-byte Spill
	.loc	1 76 21                 # /home/ncl/eyoh/test/Emulation-CPU/_xocc_link_binary_container_1/impl/kernels/compute_gradient_orientation/compute_gradient_orientation/cpu_sources/image.cl:76:21
	mulss	%xmm1, %xmm1
	movss	%xmm0, 60(%rsp)         # 4-byte Spill
	mulss	%xmm0, %xmm0
	addss	%xmm1, %xmm0
	callq	hls_sqrt@PLT
	movslq	%r13d, %r13
	movq	24(%rsp), %rax          # 8-byte Reload
	movss	%xmm0, (%rax,%r13,4)
	movss	56(%rsp), %xmm0         # 4-byte Reload
	.loc	1 77 20                 # /home/ncl/eyoh/test/Emulation-CPU/_xocc_link_binary_container_1/impl/kernels/compute_gradient_orientation/compute_gradient_orientation/cpu_sources/image.cl:77:20
	xorps	.LCPI0_0(%rip), %xmm0
	movss	60(%rsp), %xmm1         # 4-byte Reload
	callq	hls_atan2@PLT
	movq	32(%rsp), %rax          # 8-byte Reload
	movss	%xmm0, (%rax,%r13,4)
.Ltmp40:
.LBB0_23:                               # %for.body
                                        #   in Loop: Header=BB0_8 Depth=3
	incl	%r15d
	cmpl	%r15d, 48(%rsp)         # 4-byte Folded Reload
	jne	.LBB0_8
.LBB0_5:                                # %for.body50
                                        #   in Loop: Header=BB0_4 Depth=2
	incl	52(%rsp)                # 4-byte Folded Spill
	incl	%r14d
	incl	%ebx
	cmpl	16(%rsp), %ebx          # 4-byte Folded Reload
	jne	.LBB0_4
.LBB0_6:                                # %for.body56
                                        #   in Loop: Header=BB0_2 Depth=1
	movl	12(%rsp), %eax          # 4-byte Reload
	incl	%eax
	cmpl	8(%rsp), %eax           # 4-byte Folded Reload
	jne	.LBB0_2
.LBB0_7:                                # %rexit_edge
	.loc	1 80 1                  # /home/ncl/eyoh/test/Emulation-CPU/_xocc_link_binary_container_1/impl/kernels/compute_gradient_orientation/compute_gradient_orientation/cpu_sources/image.cl:80:1
	addq	$72, %rsp
	popq	%rbx
	popq	%r12
	popq	%r13
	popq	%r14
	popq	%r15
	popq	%rbp
	ret
.Ltmp41:
.Ltmp42:
	.size	compute_gradient_orientation, .Ltmp42-compute_gradient_orientation
.Lfunc_end0:
	.cfi_endproc

	.type	__spir_rt_info,@object  # @__spir_rt_info
	.bss
	.globl	__spir_rt_info
	.align	8
__spir_rt_info:
	.quad	0
	.size	__spir_rt_info, 8

	.cfi_sections .debug_frame
	.text
.Ltext_end:
	.data
.Ldata_end:
	.text
.Lsection_end1:
	.section	".note.GNU-stack","",@progbits
